target datalayout = "e-m:e-p270:32:32-p271:32:32-p272:64:64-i64:64-i128:128-f80:128-n8:16:32:64-S128"
target triple = "x86_64-unknown-linux-gnu"

%"class.net::QuicWallTime" = type { i64 }
%"struct.net::ClientHelloInfo" = type { %"class.net::IPAddress", %"class.net::QuicWallTime", i8, %"class.base::BasicStringPiece", %"class.base::BasicStringPiece", %"class.base::BasicStringPiece", %"class.base::BasicStringPiece", %"class.net::SourceAddressTokens", %"class.std::vector.0" }
%"class.net::IPAddress" = type { %"class.std::vector" }
%"class.std::vector" = type { %"struct.std::_Vector_base" }
%"struct.std::_Vector_base" = type { %"struct.std::_Vector_base<unsigned char, std::allocator<unsigned char>>::_Vector_impl" }
%"struct.std::_Vector_base<unsigned char, std::allocator<unsigned char>>::_Vector_impl" = type { %"struct.std::_Vector_base<unsigned char, std::allocator<unsigned char>>::_Vector_impl_data" }
%"struct.std::_Vector_base<unsigned char, std::allocator<unsigned char>>::_Vector_impl_data" = type { ptr, ptr, ptr }
%"class.base::BasicStringPiece" = type { ptr, i64 }
%"class.net::SourceAddressTokens" = type { %"class.google::protobuf::MessageLite", %"struct.google::protobuf::internal::ArenaStringPtr", ptr, [1 x i32], i32, %"class.google::protobuf::RepeatedPtrField" }
%"class.google::protobuf::MessageLite" = type { ptr }
%"struct.google::protobuf::internal::ArenaStringPtr" = type { ptr }
%"class.google::protobuf::RepeatedPtrField" = type { %"class.google::protobuf::internal::RepeatedPtrFieldBase" }
%"class.google::protobuf::internal::RepeatedPtrFieldBase" = type { ptr, i32, i32, ptr }
%"class.std::vector.0" = type { %"struct.std::_Vector_base.1" }
%"struct.std::_Vector_base.1" = type { %"struct.std::_Vector_base<unsigned int, std::allocator<unsigned int>>::_Vector_impl" }
%"struct.std::_Vector_base<unsigned int, std::allocator<unsigned int>>::_Vector_impl" = type { %"struct.std::_Vector_base<unsigned int, std::allocator<unsigned int>>::_Vector_impl_data" }
%"struct.std::_Vector_base<unsigned int, std::allocator<unsigned int>>::_Vector_impl_data" = type { ptr, ptr, ptr }
%"struct.net::ValidateClientHelloResultCallback::Result" = type { %"class.net::CryptoHandshakeMessage", %"struct.net::ClientHelloInfo", i32, %"class.std::__cxx11::basic_string", %"class.net::CachedNetworkParameters" }
%"class.net::CryptoHandshakeMessage" = type { i32, %"class.std::map", i64, %"class.std::unique_ptr" }
%"class.std::map" = type { %"class.std::_Rb_tree" }
%"class.std::_Rb_tree" = type { %"struct.std::_Rb_tree<unsigned int, std::pair<const unsigned int, std::__cxx11::basic_string<char>>, std::_Select1st<std::pair<const unsigned int, std::__cxx11::basic_string<char>>>, std::less<unsigned int>>::_Rb_tree_impl" }
%"struct.std::_Rb_tree<unsigned int, std::pair<const unsigned int, std::__cxx11::basic_string<char>>, std::_Select1st<std::pair<const unsigned int, std::__cxx11::basic_string<char>>>, std::less<unsigned int>>::_Rb_tree_impl" = type { %"struct.std::_Rb_tree_key_compare", %"struct.std::_Rb_tree_header" }
%"struct.std::_Rb_tree_key_compare" = type { %"struct.std::less" }
%"struct.std::less" = type { i8 }
%"struct.std::_Rb_tree_header" = type { %"struct.std::_Rb_tree_node_base", i64 }
%"struct.std::_Rb_tree_node_base" = type { i32, ptr, ptr, ptr }
%"class.std::unique_ptr" = type { %"struct.std::__uniq_ptr_data" }
%"struct.std::__uniq_ptr_data" = type { %"class.std::__uniq_ptr_impl" }
%"class.std::__uniq_ptr_impl" = type { %"class.std::tuple" }
%"class.std::tuple" = type { %"struct.std::_Tuple_impl" }
%"struct.std::_Tuple_impl" = type { %"struct.std::_Head_base.9" }
%"struct.std::_Head_base.9" = type { ptr }
%"class.std::__cxx11::basic_string" = type { %"struct.std::__cxx11::basic_string<char>::_Alloc_hider", i64, %union.anon }
%"struct.std::__cxx11::basic_string<char>::_Alloc_hider" = type { ptr }
%union.anon = type { i64, [8 x i8] }
%"class.net::CachedNetworkParameters" = type { %"class.google::protobuf::MessageLite", %"struct.google::protobuf::internal::ArenaStringPtr", ptr, [1 x i32], i32, %"struct.google::protobuf::internal::ArenaStringPtr", i32, i32, i64, i32, i32, i64 }

@_ZN3net15ClientHelloInfoC1ERKNS_9IPAddressENS_12QuicWallTimeE = dso_local unnamed_addr alias void (ptr, ptr, i64), ptr @_ZN3net15ClientHelloInfoC2ERKNS_9IPAddressENS_12QuicWallTimeE
@_ZN3net15ClientHelloInfoD1Ev = dso_local unnamed_addr alias void (ptr), ptr @_ZN3net15ClientHelloInfoD2Ev

; Function Attrs: mustprogress uwtable
define dso_local void @_ZN3net33ValidateClientHelloResultCallback6ResultC2ERKNS_22CryptoHandshakeMessageENS_9IPAddressENS_12QuicWallTimeE(ptr noundef nonnull align 8 dereferenceable(368) %this, ptr noundef nonnull align 8 dereferenceable(72) %in_client_hello, ptr noundef %in_client_ip, i64 %in_now.coerce) unnamed_addr #0 align 2 personality ptr @__gxx_personality_v0 {
entry:
  %in_now = alloca %"class.net::QuicWallTime", align 8
  %this.addr = alloca ptr, align 8
  %in_client_hello.addr = alloca ptr, align 8
  %in_client_ip.indirect_addr = alloca ptr, align 8
  %agg.tmp = alloca %"class.net::QuicWallTime", align 8
  %exn.slot = alloca ptr, align 8
  %ehselector.slot = alloca i32, align 4
  %coerce.dive = getelementptr inbounds %"class.net::QuicWallTime", ptr %in_now, i32 0, i32 0
  store i64 %in_now.coerce, ptr %coerce.dive, align 8
  store ptr %this, ptr %this.addr, align 8
  store ptr %in_client_hello, ptr %in_client_hello.addr, align 8
  store ptr %in_client_ip, ptr %in_client_ip.indirect_addr, align 8
  %this1 = load ptr, ptr %this.addr, align 8
  %client_hello = getelementptr inbounds %"struct.net::ValidateClientHelloResultCallback::Result", ptr %this1, i32 0, i32 0
  %0 = load ptr, ptr %in_client_hello.addr, align 8
  call void @_ZN3net22CryptoHandshakeMessageC1ERKS0_(ptr noundef nonnull align 8 dereferenceable(72) %client_hello, ptr noundef nonnull align 8 dereferenceable(72) %0)
  %info = getelementptr inbounds %"struct.net::ValidateClientHelloResultCallback::Result", ptr %this1, i32 0, i32 1
  call void @llvm.memcpy.p0.p0.i64(ptr align 8 %agg.tmp, ptr align 8 %in_now, i64 8, i1 false)
  %coerce.dive2 = getelementptr inbounds %"class.net::QuicWallTime", ptr %agg.tmp, i32 0, i32 0
  %1 = load i64, ptr %coerce.dive2, align 8
  invoke void @_ZN3net15ClientHelloInfoC1ERKNS_9IPAddressENS_12QuicWallTimeE(ptr noundef nonnull align 8 dereferenceable(184) %info, ptr noundef nonnull align 8 dereferenceable(24) %in_client_ip, i64 %1)
          to label %invoke.cont unwind label %lpad

invoke.cont:                                      ; preds = %entry
  %error_code = getelementptr inbounds %"struct.net::ValidateClientHelloResultCallback::Result", ptr %this1, i32 0, i32 2
  store i32 0, ptr %error_code, align 8
  %error_details = getelementptr inbounds %"struct.net::ValidateClientHelloResultCallback::Result", ptr %this1, i32 0, i32 3
  call void @_ZNSt7__cxx1112basic_stringIcSt11char_traitsIcESaIcEEC1Ev(ptr noundef nonnull align 8 dereferenceable(32) %error_details) #14
  %cached_network_params = getelementptr inbounds %"struct.net::ValidateClientHelloResultCallback::Result", ptr %this1, i32 0, i32 4
  invoke void @_ZN3net23CachedNetworkParametersC1Ev(ptr noundef nonnull align 8 dereferenceable(72) %cached_network_params)
          to label %invoke.cont4 unwind label %lpad3

invoke.cont4:                                     ; preds = %invoke.cont
  ret void

lpad:                                             ; preds = %entry
  %2 = landingpad { ptr, i32 }
          cleanup
  %3 = extractvalue { ptr, i32 } %2, 0
  store ptr %3, ptr %exn.slot, align 8
  %4 = extractvalue { ptr, i32 } %2, 1
  store i32 %4, ptr %ehselector.slot, align 4
  br label %ehcleanup

lpad3:                                            ; preds = %invoke.cont
  %5 = landingpad { ptr, i32 }
          cleanup
  %6 = extractvalue { ptr, i32 } %5, 0
  store ptr %6, ptr %exn.slot, align 8
  %7 = extractvalue { ptr, i32 } %5, 1
  store i32 %7, ptr %ehselector.slot, align 4
  call void @_ZNSt7__cxx1112basic_stringIcSt11char_traitsIcESaIcEED1Ev(ptr noundef nonnull align 8 dereferenceable(32) %error_details) #14
  call void @_ZN3net15ClientHelloInfoD1Ev(ptr noundef nonnull align 8 dereferenceable(184) %info) #14
  br label %ehcleanup

ehcleanup:                                        ; preds = %lpad3, %lpad
  call void @_ZN3net22CryptoHandshakeMessageD1Ev(ptr noundef nonnull align 8 dereferenceable(72) %client_hello) #14
  br label %eh.resume

eh.resume:                                        ; preds = %ehcleanup
  %exn = load ptr, ptr %exn.slot, align 8
  %sel = load i32, ptr %ehselector.slot, align 4
  %lpad.val = insertvalue { ptr, i32 } poison, ptr %exn, 0
  %lpad.val5 = insertvalue { ptr, i32 } %lpad.val, i32 %sel, 1
  resume { ptr, i32 } %lpad.val5
}