; Function Attrs: mustprogress uwtable
define dso_local void @_ZN3net33ValidateClientHelloResultCallback6ResultC2ERKNS_22CryptoHandshakeMessageENS_9IPAddressENS_12QuicWallTimeE(ptr noundef nonnull align 8 dereferenceable(368) %this, ptr noundef nonnull align 8 dereferenceable(72) %in_client_hello, ptr noundef %in_client_ip, i64 %in_now.coerce) unnamed_addr #0 align 2 personality ptr @__gxx_personality_v0 {
entry:
  tail call void @_ZN3net22CryptoHandshakeMessageC1ERKS0_(ptr noundef nonnull align 8 dereferenceable(72) %this, ptr noundef nonnull align 8 dereferenceable(72) %in_client_hello)
  %info = getelementptr inbounds i8, ptr %this, i64 72
  invoke void @_ZN3net9IPAddressC1ERKS0_(ptr noundef nonnull align 8 dereferenceable(24) %info, ptr noundef nonnull align 8 dereferenceable(24) %in_client_ip)
          to label %.noexc unwind label %lpad

.noexc:                                           ; preds = %entry
  %now.i = getelementptr inbounds i8, ptr %this, i64 96
  store i64 %in_now.coerce, ptr %now.i, align 8
  %valid_source_address_token.i = getelementptr inbounds i8, ptr %this, i64 104
  store i8 0, ptr %valid_source_address_token.i, align 8
  %sni.i = getelementptr inbounds i8, ptr %this, i64 112
  invoke void @_ZN4base16BasicStringPieceINSt7__cxx1112basic_stringIcSt11char_traitsIcESaIcEEEEC1Ev(ptr noundef nonnull align 8 dereferenceable(16) %sni.i)
          to label %invoke.cont.i unwind label %lpad.i

invoke.cont.i:                                    ; preds = %.noexc
  %client_nonce.i = getelementptr inbounds i8, ptr %this, i64 128
  invoke void @_ZN4base16BasicStringPieceINSt7__cxx1112basic_stringIcSt11char_traitsIcESaIcEEEEC1Ev(ptr noundef nonnull align 8 dereferenceable(16) %client_nonce.i)
          to label %invoke.cont2.i unwind label %lpad.i

invoke.cont2.i:                                   ; preds = %invoke.cont.i
  %server_nonce.i = getelementptr inbounds i8, ptr %this, i64 144
  invoke void @_ZN4base16BasicStringPieceINSt7__cxx1112basic_stringIcSt11char_traitsIcESaIcEEEEC1Ev(ptr noundef nonnull align 8 dereferenceable(16) %server_nonce.i)
          to label %invoke.cont3.i unwind label %lpad.i

invoke.cont3.i:                                   ; preds = %invoke.cont2.i
  %user_agent_id.i = getelementptr inbounds i8, ptr %this, i64 160
  invoke void @_ZN4base16BasicStringPieceINSt7__cxx1112basic_stringIcSt11char_traitsIcESaIcEEEEC1Ev(ptr noundef nonnull align 8 dereferenceable(16) %user_agent_id.i)
          to label %invoke.cont4.i unwind label %lpad.i

invoke.cont4.i:                                   ; preds = %invoke.cont3.i
  %source_address_tokens.i = getelementptr inbounds i8, ptr %this, i64 176
  invoke void @_ZN3net19SourceAddressTokensC1Ev(ptr noundef nonnull align 8 dereferenceable(56) %source_address_tokens.i)
          to label %invoke.cont unwind label %lpad.i

lpad.i:                                           ; preds = %invoke.cont4.i, %invoke.cont3.i, %invoke.cont2.i, %invoke.cont.i, %.noexc
  %0 = landingpad { ptr, i32 }
          cleanup
  tail call void @_ZN3net9IPAddressD1Ev(ptr noundef nonnull align 8 dereferenceable(24) %info) #20
  br label %ehcleanup

invoke.cont:                                      ; preds = %invoke.cont4.i
  %reject_reasons.i = getelementptr inbounds i8, ptr %this, i64 232
  %error_details = getelementptr inbounds i8, ptr %this, i64 264
  tail call void @llvm.memset.p0.i64(ptr noundef nonnull align 8 dereferenceable(28) %reject_reasons.i, i8 0, i64 28, i1 false)
  tail call void @_ZNSt7__cxx1112basic_stringIcSt11char_traitsIcESaIcEEC1Ev(ptr noundef nonnull align 8 dereferenceable(32) %error_details) #20
  %cached_network_params = getelementptr inbounds i8, ptr %this, i64 296
  invoke void @_ZN3net23CachedNetworkParametersC1Ev(ptr noundef nonnull align 8 dereferenceable(72) %cached_network_params)
          to label %invoke.cont4 unwind label %lpad3

invoke.cont4:                                     ; preds = %invoke.cont
  ret void

lpad:                                             ; preds = %entry
  %1 = landingpad { ptr, i32 }
          cleanup
  br label %ehcleanup

lpad3:                                            ; preds = %invoke.cont
  %2 = landingpad { ptr, i32 }
          cleanup
  tail call void @_ZNSt7__cxx1112basic_stringIcSt11char_traitsIcESaIcEED1Ev(ptr noundef nonnull align 8 dereferenceable(32) %error_details) #20
  tail call void @_ZN3net15ClientHelloInfoD2Ev(ptr noundef nonnull align 8 dereferenceable(184) %info) #20
  br label %ehcleanup

ehcleanup:                                        ; preds = %lpad, %lpad.i, %lpad3
  %.pn = phi { ptr, i32 } [ %2, %lpad3 ], [ %1, %lpad ], [ %0, %lpad.i ]
  tail call void @_ZN3net22CryptoHandshakeMessageD1Ev(ptr noundef nonnull align 8 dereferenceable(72) %this) #20
  resume { ptr, i32 } %.pn
}